; Function Attrs: mustprogress nounwind uwtable
define dso_local void @_ZN4node15BlobBindingDataC2EPNS_5RealmEN2v85LocalINS3_6ObjectEEE(ptr noundef nonnull align 8 dereferenceable(96) %this, ptr noundef %realm, ptr %wrap.coerce) unnamed_addr #3 align 2 {
entry:
  tail call void @_ZN4node18SnapshotableObjectC2EPNS_5RealmEN2v85LocalINS3_6ObjectEEENS_18EmbedderObjectTypeE(ptr noundef nonnull align 8 dereferenceable(33) %this, ptr noundef %realm, ptr %wrap.coerce, i8 noundef zeroext 4) #22
  store ptr getelementptr inbounds ({ [21 x ptr] }, ptr @_ZTVN4node15BlobBindingDataE, i64 0, i32 0, i64 2), ptr %this, align 8
  %data_objects_ = getelementptr inbounds i8, ptr %this, i64 40
  %_M_single_bucket.i.i = getelementptr inbounds i8, ptr %this, i64 88
  store ptr %_M_single_bucket.i.i, ptr %data_objects_, align 8
  %_M_bucket_count.i.i = getelementptr inbounds i8, ptr %this, i64 48
  store i64 1, ptr %_M_bucket_count.i.i, align 8
  %_M_before_begin.i.i = getelementptr inbounds i8, ptr %this, i64 56
  %_M_rehash_policy.i.i = getelementptr inbounds i8, ptr %this, i64 72
  tail call void @llvm.memset.p0.i64(ptr noundef nonnull align 8 dereferenceable(16) %_M_before_begin.i.i, i8 0, i64 16, i1 false)
  store float 1.000000e+00, ptr %_M_rehash_policy.i.i, align 8
  %_M_next_resize.i.i.i = getelementptr inbounds i8, ptr %this, i64 80
  tail call void @llvm.memset.p0.i64(ptr noundef nonnull align 8 dereferenceable(16) %_M_next_resize.i.i.i, i8 0, i64 16, i1 false)
  tail call void @_ZN4node10BaseObject8MakeWeakEv(ptr noundef nonnull align 8 dereferenceable(32) %this) #22
  ret void
}